; Function Attrs: mustprogress nofree norecurse nosync nounwind willreturn memory(argmem: readwrite) uwtable
define void @_ZN3net17QuicPacketCreator18StopSendingVersionEv(ptr noundef nonnull align 8 captures(none) dereferenceable(312) initializes((56, 57)) %0) local_unnamed_addr #8 align 2 personality ptr @__gxx_personality_v0 {
  %2 = getelementptr inbounds nuw i8, ptr %0, i64 56
  store i8 0, ptr %2, align 8, !tbaa !72
  %3 = getelementptr inbounds nuw i8, ptr %0, i64 144
  %4 = load i64, ptr %3, align 8, !tbaa !90
  %.not = icmp eq i64 %4, 0
  br i1 %.not, label %7, label %5

5:                                                ; preds = %1
  %6 = add i64 %4, -4
  store i64 %6, ptr %3, align 8, !tbaa !90
  br label %7

7:                                                ; preds = %5, %1
  ret void
}